target datalayout = "e-m:e-p270:32:32-p271:32:32-p272:64:64-i64:64-i128:128-f80:128-n8:16:32:64-S128"
target triple = "x86_64-pc-linux-gnu"

%struct.psa_global_data_t = type { [23 x ptr], [22 x i64], i8 }
%struct.psa_key_slot_t = type { %struct.psa_key_attributes_s, i32, i8, %union.anon, %struct.key_data }
%struct.psa_key_attributes_s = type { i16, i16, i32, %struct.psa_key_policy_s, i32 }
%struct.psa_key_policy_s = type { i32, i32, i32 }
%union.anon = type { %struct.anon.0 }
%struct.anon.0 = type { i64 }
%struct.key_data = type { ptr, i64 }
%struct.anon = type { i32 }

@global_data = internal global %struct.psa_global_data_t zeroinitializer, align 8

; Function Attrs: inlinehint nounwind uwtable
define internal i64 @key_slice_length(i64 noundef %0) #3 {
  %2 = alloca i64, align 8
  %3 = alloca i64, align 8
  store i64 %0, ptr %3, align 8, !tbaa !11
  %4 = load i64, ptr %3, align 8, !tbaa !11
  %5 = icmp eq i64 %4, 22
  br i1 %5, label %6, label %7

6:                                                ; preds = %1
  store i64 32, ptr %2, align 8
  br label %12

7:                                                ; preds = %1
  %8 = load i64, ptr %3, align 8, !tbaa !11
  %9 = trunc i64 %8 to i32
  %10 = shl i32 16, %9
  %11 = zext i32 %10 to i64
  store i64 %11, ptr %2, align 8
  br label %12

12:                                               ; preds = %7, %6
  %13 = load i64, ptr %2, align 8
  ret i64 %13
}

; Function Attrs: nounwind uwtable
define hidden i32 @psa_free_key_slot(i64 noundef %0, ptr noundef %1) #0 {
  %3 = alloca i32, align 4
  %4 = alloca i64, align 8
  %5 = alloca ptr, align 8
  %6 = alloca ptr, align 8
  %7 = alloca ptr, align 8
  %8 = alloca i32, align 4
  %9 = alloca i64, align 8
  %10 = alloca i64, align 8
  store i64 %0, ptr %4, align 8, !tbaa !11
  store ptr %1, ptr %5, align 8, !tbaa !7
  %11 = load i64, ptr %4, align 8, !tbaa !11
  %12 = icmp eq i64 %11, 22
  br i1 %12, label %13, label %14

13:                                               ; preds = %2
  store i32 0, ptr %3, align 4
  br label %65

14:                                               ; preds = %2
  %15 = load i64, ptr %4, align 8, !tbaa !11
  %16 = icmp uge i64 %15, 22
  br i1 %16, label %17, label %18

17:                                               ; preds = %14
  store i32 -151, ptr %3, align 4
  br label %65

18:                                               ; preds = %14
  call void @llvm.lifetime.start.p0(i64 8, ptr %6) #7
  %19 = load i64, ptr %4, align 8, !tbaa !11
  %20 = getelementptr inbounds nuw [23 x ptr], ptr @global_data, i64 0, i64 %19
  %21 = load ptr, ptr %20, align 8, !tbaa !7
  store ptr %21, ptr %6, align 8, !tbaa !7
  call void @llvm.lifetime.start.p0(i64 8, ptr %7) #7
  %22 = load ptr, ptr %6, align 8, !tbaa !7
  %23 = load i64, ptr %4, align 8, !tbaa !11
  %24 = call i64 @key_slice_length(i64 noundef %23)
  %25 = getelementptr inbounds nuw %struct.psa_key_slot_t, ptr %22, i64 %24
  store ptr %25, ptr %7, align 8, !tbaa !7
  %26 = load ptr, ptr %5, align 8, !tbaa !7
  %27 = load ptr, ptr %6, align 8, !tbaa !7
  %28 = icmp ult ptr %26, %27
  br i1 %28, label %33, label %29

29:                                               ; preds = %18
  %30 = load ptr, ptr %5, align 8, !tbaa !7
  %31 = load ptr, ptr %7, align 8, !tbaa !7
  %32 = icmp uge ptr %30, %31
  br i1 %32, label %33, label %34

33:                                               ; preds = %29, %18
  store i32 -151, ptr %3, align 4
  store i32 1, ptr %8, align 4
  br label %64

34:                                               ; preds = %29
  call void @llvm.lifetime.start.p0(i64 8, ptr %9) #7
  %35 = load ptr, ptr %5, align 8, !tbaa !7
  %36 = load ptr, ptr %6, align 8, !tbaa !7
  %37 = ptrtoint ptr %35 to i64
  %38 = ptrtoint ptr %36 to i64
  %39 = sub i64 %37, %38
  %40 = sdiv exact i64 %39, 56
  store i64 %40, ptr %9, align 8, !tbaa !11
  call void @llvm.lifetime.start.p0(i64 8, ptr %10) #7
  %41 = load i64, ptr %4, align 8, !tbaa !11
  %42 = getelementptr inbounds nuw [22 x i64], ptr getelementptr inbounds nuw (%struct.psa_global_data_t, ptr @global_data, i32 0, i32 1), i64 0, i64 %41
  %43 = load i64, ptr %42, align 8, !tbaa !11
  store i64 %43, ptr %10, align 8, !tbaa !11
  %44 = load i64, ptr %10, align 8, !tbaa !11
  %45 = load i64, ptr %4, align 8, !tbaa !11
  %46 = call i64 @key_slice_length(i64 noundef %45)
  %47 = icmp uge i64 %44, %46
  br i1 %47, label %48, label %51

48:                                               ; preds = %34
  %49 = load i64, ptr %4, align 8, !tbaa !11
  %50 = call i64 @key_slice_length(i64 noundef %49)
  store i64 %50, ptr %10, align 8, !tbaa !11
  br label %51

51:                                               ; preds = %48, %34
  %52 = load i64, ptr %9, align 8, !tbaa !11
  %53 = load i64, ptr %4, align 8, !tbaa !11
  %54 = getelementptr inbounds nuw [22 x i64], ptr getelementptr inbounds nuw (%struct.psa_global_data_t, ptr @global_data, i32 0, i32 1), i64 0, i64 %53
  store i64 %52, ptr %54, align 8, !tbaa !11
  %55 = load i64, ptr %10, align 8, !tbaa !11
  %56 = trunc i64 %55 to i32
  %57 = load i64, ptr %9, align 8, !tbaa !11
  %58 = trunc i64 %57 to i32
  %59 = sub nsw i32 %56, %58
  %60 = sub nsw i32 %59, 1
  %61 = load ptr, ptr %5, align 8, !tbaa !7
  %62 = getelementptr inbounds nuw %struct.psa_key_slot_t, ptr %61, i32 0, i32 3
  %63 = getelementptr inbounds nuw %struct.anon, ptr %62, i32 0, i32 0
  store i32 %60, ptr %63, align 8, !tbaa !20
  store i32 0, ptr %3, align 4
  store i32 1, ptr %8, align 4
  call void @llvm.lifetime.end.p0(i64 8, ptr %10) #7
  call void @llvm.lifetime.end.p0(i64 8, ptr %9) #7
  br label %64

64:                                               ; preds = %51, %33
  call void @llvm.lifetime.end.p0(i64 8, ptr %7) #7
  call void @llvm.lifetime.end.p0(i64 8, ptr %6) #7
  br label %65

65:                                               ; preds = %64, %17, %13
  %66 = load i32, ptr %3, align 4
  ret i32 %66
}