; Function Attrs: mustprogress nofree norecurse nosync nounwind willreturn memory(readwrite, argmem: write, inaccessiblemem: none) uwtable
define hidden range(i32 -151, 1) i32 @psa_free_key_slot(i64 noundef %0, ptr noundef %1) local_unnamed_addr #7 {
  %3 = icmp eq i64 %0, 22
  br i1 %3, label %26, label %4

4:                                                ; preds = %2
  %5 = icmp ugt i64 %0, 21
  br i1 %5, label %26, label %6

6:                                                ; preds = %4
  %7 = getelementptr inbounds nuw [23 x ptr], ptr @global_data, i64 0, i64 %0
  %8 = load ptr, ptr %7, align 8, !tbaa !3
  %9 = trunc nuw i64 %0 to i32
  %10 = shl nuw nsw i32 16, %9
  %11 = zext nneg i32 %10 to i64
  %12 = icmp uge ptr %1, %8
  %13 = getelementptr inbounds nuw %struct.psa_key_slot_t, ptr %8, i64 %11
  %.not = icmp ult ptr %1, %13
  %or.cond = select i1 %12, i1 %.not, i1 false
  br i1 %or.cond, label %14, label %26

14:                                               ; preds = %6
  %15 = ptrtoint ptr %1 to i64
  %16 = ptrtoint ptr %8 to i64
  %17 = sub i64 %15, %16
  %18 = sdiv exact i64 %17, 56
  %19 = getelementptr inbounds nuw [22 x i64], ptr getelementptr inbounds nuw (i8, ptr @global_data, i64 184), i64 0, i64 %0
  %20 = load i64, ptr %19, align 8, !tbaa !22
  %spec.select = tail call i64 @llvm.umin.i64(i64 %20, i64 %11)
  store i64 %18, ptr %19, align 8, !tbaa !22
  %21 = trunc nuw nsw i64 %spec.select to i32
  %22 = trunc i64 %18 to i32
  %23 = xor i32 %22, -1
  %24 = add i32 %21, %23
  %25 = getelementptr inbounds nuw i8, ptr %1, i64 32
  store i32 %24, ptr %25, align 8, !tbaa !18
  br label %26

26:                                               ; preds = %14, %6, %4, %2
  %.020 = phi i32 [ 0, %2 ], [ -151, %4 ], [ 0, %14 ], [ -151, %6 ]
  ret i32 %.020
}